target datalayout = "e-m:e-p270:32:32-p271:32:32-p272:64:64-i64:64-i128:128-f80:128-n8:16:32:64-S128"
target triple = "x86_64-pc-linux-gnu"

@.str.14 = private unnamed_addr constant [23 x i8] c"\0AUSAGE: %s [options]\0A\0A\00", align 1
@.str.15 = private unnamed_addr constant [10 x i8] c"Options:\0A\00", align 1
@.str.16 = private unnamed_addr constant [61 x i8] c"-yuv = test YUV encoding/compression/decompression/decoding\0A\00", align 1
@.str.17 = private unnamed_addr constant [36 x i8] c"       (8-bit data precision only)\0A\00", align 1
@.str.18 = private unnamed_addr constant [74 x i8] c"-noyuvpad = do not pad each row in each Y, U, and V plane to the nearest\0A\00", align 1
@.str.19 = private unnamed_addr constant [33 x i8] c"            multiple of 4 bytes\0A\00", align 1
@.str.20 = private unnamed_addr constant [80 x i8] c"-precision N = test N-bit data precision (N=2..16; default is 8; if N is not 8\0A\00", align 1
@.str.21 = private unnamed_addr constant [50 x i8] c"               or 12, then -lossless is implied)\0A\00", align 1
@.str.22 = private unnamed_addr constant [58 x i8] c"-lossless = test lossless JPEG compression/decompression\0A\00", align 1
@.str.23 = private unnamed_addr constant [48 x i8] c"-alloc = test automatic JPEG buffer allocation\0A\00", align 1
@.str.24 = private unnamed_addr constant [36 x i8] c"-bmp = test packed-pixel image I/O\0A\00", align 1

; Function Attrs: nounwind uwtable
define internal void @usage(ptr noundef %0) #0 {
  %2 = alloca ptr, align 8
  store ptr %0, ptr %2, align 8, !tbaa !11
  %3 = load ptr, ptr %2, align 8, !tbaa !11
  %4 = call i32 (ptr, ...) @printf(ptr noundef @.str.14, ptr noundef %3)
  %5 = call i32 (ptr, ...) @printf(ptr noundef @.str.15)
  %6 = call i32 (ptr, ...) @printf(ptr noundef @.str.16)
  %7 = call i32 (ptr, ...) @printf(ptr noundef @.str.17)
  %8 = call i32 (ptr, ...) @printf(ptr noundef @.str.18)
  %9 = call i32 (ptr, ...) @printf(ptr noundef @.str.19)
  %10 = call i32 (ptr, ...) @printf(ptr noundef @.str.20)
  %11 = call i32 (ptr, ...) @printf(ptr noundef @.str.21)
  %12 = call i32 (ptr, ...) @printf(ptr noundef @.str.22)
  %13 = call i32 (ptr, ...) @printf(ptr noundef @.str.23)
  %14 = call i32 (ptr, ...) @printf(ptr noundef @.str.24)
  call void @exit(i32 noundef 1) #14
  unreachable
}